; Function Attrs: mustprogress uwtable
define internal fastcc noundef zeroext i1 @"_ZN9__gnu_cxx5__ops15_Iter_comp_iterIZN5zxing6qrcode19FinderPatternFinder4findERKNS2_11DecodeHintsERNS2_12ErrorHandlerEE3$_0EclINS_17__normal_iteratorIPNS2_3RefINS3_17FinderPatternInfoEEESt6vectorISG_SaISG_EEEESL_EEbT_T0_"(ptr nocapture readonly %0, ptr nocapture readonly %1) unnamed_addr #0 align 2 personality ptr @__gxx_personality_v0 {
  %3 = load ptr, ptr %0, align 8
  %.not.i.i = icmp eq ptr %3, null
  br i1 %.not.i.i, label %_ZN5zxing3RefINS_6qrcode17FinderPatternInfoEEC2ERKS3_.exit, label %4

4:                                                ; preds = %2
  %5 = getelementptr inbounds i8, ptr %3, i64 8
  %6 = load i32, ptr %5, align 8
  %7 = add i32 %6, 1
  store i32 %7, ptr %5, align 8
  br label %_ZN5zxing3RefINS_6qrcode17FinderPatternInfoEEC2ERKS3_.exit

_ZN5zxing3RefINS_6qrcode17FinderPatternInfoEEC2ERKS3_.exit: ; preds = %4, %2
  %8 = load ptr, ptr %1, align 8
  %.not.i.i4 = icmp eq ptr %8, null
  br i1 %.not.i.i4, label %_ZN5zxing3RefINS_6qrcode17FinderPatternInfoEEC2ERKS3_.exit7, label %9

9:                                                ; preds = %_ZN5zxing3RefINS_6qrcode17FinderPatternInfoEEC2ERKS3_.exit
  %10 = getelementptr inbounds i8, ptr %8, i64 8
  %11 = load i32, ptr %10, align 8
  %12 = add i32 %11, 1
  store i32 %12, ptr %10, align 8
  br label %_ZN5zxing3RefINS_6qrcode17FinderPatternInfoEEC2ERKS3_.exit7

_ZN5zxing3RefINS_6qrcode17FinderPatternInfoEEC2ERKS3_.exit7: ; preds = %_ZN5zxing3RefINS_6qrcode17FinderPatternInfoEEC2ERKS3_.exit, %9
  %13 = invoke noundef float @_ZN5zxing6qrcode17FinderPatternInfo14getPossibleFixEv(ptr noundef nonnull align 8 dereferenceable(48) %3)
          to label %.noexc unwind label %33

.noexc:                                           ; preds = %_ZN5zxing3RefINS_6qrcode17FinderPatternInfoEEC2ERKS3_.exit7
  %14 = invoke noundef float @_ZN5zxing6qrcode17FinderPatternInfo14getPossibleFixEv(ptr noundef nonnull align 8 dereferenceable(48) %8)
          to label %15 unwind label %33

15:                                               ; preds = %.noexc
  %16 = getelementptr inbounds i8, ptr %8, i64 8
  %17 = load i32, ptr %16, align 8
  %18 = add i32 %17, -1
  store i32 %18, ptr %16, align 8
  %19 = icmp eq i32 %18, 0
  br i1 %19, label %20, label %_ZN5zxing3RefINS_6qrcode17FinderPatternInfoEED2Ev.exit

20:                                               ; preds = %15
  store i32 -559026175, ptr %16, align 8
  %21 = load ptr, ptr %8, align 8
  %22 = getelementptr inbounds i8, ptr %21, i64 8
  %23 = load ptr, ptr %22, align 8
  tail call void %23(ptr noundef nonnull align 8 dereferenceable(12) %8) #22
  br label %_ZN5zxing3RefINS_6qrcode17FinderPatternInfoEED2Ev.exit

_ZN5zxing3RefINS_6qrcode17FinderPatternInfoEED2Ev.exit: ; preds = %20, %15
  %24 = getelementptr inbounds i8, ptr %3, i64 8
  %25 = load i32, ptr %24, align 8
  %26 = add i32 %25, -1
  store i32 %26, ptr %24, align 8
  %27 = icmp eq i32 %26, 0
  br i1 %27, label %28, label %_ZN5zxing3RefINS_6qrcode17FinderPatternInfoEED2Ev.exit10

28:                                               ; preds = %_ZN5zxing3RefINS_6qrcode17FinderPatternInfoEED2Ev.exit
  store i32 -559026175, ptr %24, align 8
  %29 = load ptr, ptr %3, align 8
  %30 = getelementptr inbounds i8, ptr %29, i64 8
  %31 = load ptr, ptr %30, align 8
  tail call void %31(ptr noundef nonnull align 8 dereferenceable(12) %3) #22
  br label %_ZN5zxing3RefINS_6qrcode17FinderPatternInfoEED2Ev.exit10

_ZN5zxing3RefINS_6qrcode17FinderPatternInfoEED2Ev.exit10: ; preds = %_ZN5zxing3RefINS_6qrcode17FinderPatternInfoEED2Ev.exit, %28
  %32 = fcmp ogt float %13, %14
  ret i1 %32

33:                                               ; preds = %.noexc, %_ZN5zxing3RefINS_6qrcode17FinderPatternInfoEEC2ERKS3_.exit7
  %34 = landingpad { ptr, i32 }
          cleanup
  br i1 %.not.i.i4, label %_ZN5zxing3RefINS_6qrcode17FinderPatternInfoEED2Ev.exit12, label %35

35:                                               ; preds = %33
  %36 = getelementptr inbounds i8, ptr %8, i64 8
  %37 = load i32, ptr %36, align 8
  %38 = add i32 %37, -1
  store i32 %38, ptr %36, align 8
  %39 = icmp eq i32 %38, 0
  br i1 %39, label %40, label %_ZN5zxing3RefINS_6qrcode17FinderPatternInfoEED2Ev.exit12

40:                                               ; preds = %35
  store i32 -559026175, ptr %36, align 8
  %41 = load ptr, ptr %8, align 8
  %42 = getelementptr inbounds i8, ptr %41, i64 8
  %43 = load ptr, ptr %42, align 8
  tail call void %43(ptr noundef nonnull align 8 dereferenceable(12) %8) #22
  br label %_ZN5zxing3RefINS_6qrcode17FinderPatternInfoEED2Ev.exit12

_ZN5zxing3RefINS_6qrcode17FinderPatternInfoEED2Ev.exit12: ; preds = %40, %35, %33
  br i1 %.not.i.i, label %_ZN5zxing3RefINS_6qrcode17FinderPatternInfoEED2Ev.exit14, label %44

44:                                               ; preds = %_ZN5zxing3RefINS_6qrcode17FinderPatternInfoEED2Ev.exit12
  %45 = getelementptr inbounds i8, ptr %3, i64 8
  %46 = load i32, ptr %45, align 8
  %47 = add i32 %46, -1
  store i32 %47, ptr %45, align 8
  %48 = icmp eq i32 %47, 0
  br i1 %48, label %49, label %_ZN5zxing3RefINS_6qrcode17FinderPatternInfoEED2Ev.exit14

49:                                               ; preds = %44
  store i32 -559026175, ptr %45, align 8
  %50 = load ptr, ptr %3, align 8
  %51 = getelementptr inbounds i8, ptr %50, i64 8
  %52 = load ptr, ptr %51, align 8
  tail call void %52(ptr noundef nonnull align 8 dereferenceable(12) %3) #22
  br label %_ZN5zxing3RefINS_6qrcode17FinderPatternInfoEED2Ev.exit14

_ZN5zxing3RefINS_6qrcode17FinderPatternInfoEED2Ev.exit14: ; preds = %_ZN5zxing3RefINS_6qrcode17FinderPatternInfoEED2Ev.exit12, %44, %49
  resume { ptr, i32 } %34
}